target datalayout = "e-m:e-p270:32:32-p271:32:32-p272:64:64-i64:64-i128:128-f80:128-n8:16:32:64-S128"
target triple = "x86_64-pc-linux-gnu"

%struct.AVCodecContext = type { ptr, i32, i32, ptr, i32, i32, ptr, ptr, ptr, i64, i32, i32, ptr, i32, %struct.AVRational, %struct.AVRational, %struct.AVRational, i32, i32, i32, i32, i32, %struct.AVRational, i32, i32, i32, i32, i32, i32, i32, i32, i32, i32, i32, ptr, ptr, i32, float, float, float, float, float, float, float, float, float, i32, i32, i32, i32, i32, i32, i32, i32, i32, i32, i32, i32, ptr, ptr, ptr, i32, i32, i32, i32, i32, i32, i32, i32, i32, i32, %struct.AVChannelLayout, i32, i32, i32, i32, i32, i32, i32, i32, ptr, i32, i32, i32, float, float, i32, i32, i32, i32, i32, ptr, i64, i64, float, float, i32, i32, ptr, ptr, i32, i32, i32, i32, i32, ptr, ptr, ptr, ptr, i32, i32, [8 x i64], i32, i32, i32, i32, i32, i32, i32, ptr, ptr, i32, i32, i32, i32, i32, i32, i32, i32, i32, i32, ptr, ptr, i32, i32, ptr, ptr, ptr, ptr, i32, i32, i64, i32, i32, i64, ptr, i64, ptr, i32, ptr, i32 }
%struct.AVRational = type { i32, i32 }
%struct.AVChannelLayout = type { i32, i32, %union.anon.0, ptr }
%union.anon.0 = type { i64 }
%struct.WavpackContext = type { ptr, ptr, i32, i32, i32, i32, ptr, ptr, ptr, ptr, i32 }
%union.AVRefStructOpaque = type { ptr }

; Function Attrs: inlinehint nounwind uwtable
define internal ptr @av_refstruct_pool_alloc_ext(i64 noundef %0, i32 noundef %1, ptr noundef %2, ptr noundef %3, ptr noundef %4, ptr noundef %5, ptr noundef %6) #4 {
  %8 = alloca i64, align 8
  %9 = alloca i32, align 4
  %10 = alloca ptr, align 8
  %11 = alloca ptr, align 8
  %12 = alloca ptr, align 8
  %13 = alloca ptr, align 8
  %14 = alloca ptr, align 8
  %15 = alloca %union.AVRefStructOpaque, align 8
  store i64 %0, ptr %8, align 8, !tbaa !63
  store i32 %1, ptr %9, align 4, !tbaa !51
  store ptr %2, ptr %10, align 8, !tbaa !64
  store ptr %3, ptr %11, align 8, !tbaa !64
  store ptr %4, ptr %12, align 8, !tbaa !64
  store ptr %5, ptr %13, align 8, !tbaa !64
  store ptr %6, ptr %14, align 8, !tbaa !64
  %16 = load i64, ptr %8, align 8, !tbaa !63
  %17 = load i32, ptr %9, align 4, !tbaa !51
  %18 = load ptr, ptr %10, align 8, !tbaa !64
  store ptr %18, ptr %15, align 8, !tbaa !53
  %19 = load ptr, ptr %11, align 8, !tbaa !64
  %20 = load ptr, ptr %12, align 8, !tbaa !64
  %21 = load ptr, ptr %13, align 8, !tbaa !64
  %22 = load ptr, ptr %14, align 8, !tbaa !64
  %23 = getelementptr inbounds nuw %union.AVRefStructOpaque, ptr %15, i32 0, i32 0
  %24 = load ptr, ptr %23, align 8
  %25 = call ptr @av_refstruct_pool_alloc_ext_c(i64 noundef %16, i32 noundef %17, ptr %24, ptr noundef %19, ptr noundef %20, ptr noundef %21, ptr noundef %22)
  ret ptr %25
}

; Function Attrs: cold nounwind optsize uwtable
define internal i32 @wavpack_decode_init(ptr noundef %0) #1 {
  %2 = alloca i32, align 4
  %3 = alloca ptr, align 8
  %4 = alloca ptr, align 8
  %5 = alloca i32, align 4
  store ptr %0, ptr %3, align 8, !tbaa !4
  call void @llvm.lifetime.start.p0(i64 8, ptr %4) #11
  %6 = load ptr, ptr %3, align 8, !tbaa !4
  %7 = getelementptr inbounds nuw %struct.AVCodecContext, ptr %6, i32 0, i32 6
  %8 = load ptr, ptr %7, align 8, !tbaa !9
  store ptr %8, ptr %4, align 8, !tbaa !29
  %9 = load ptr, ptr %3, align 8, !tbaa !4
  %10 = load ptr, ptr %4, align 8, !tbaa !29
  %11 = getelementptr inbounds nuw %struct.WavpackContext, ptr %10, i32 0, i32 0
  store ptr %9, ptr %11, align 8, !tbaa !39
  %12 = load ptr, ptr %4, align 8, !tbaa !29
  %13 = getelementptr inbounds nuw %struct.WavpackContext, ptr %12, i32 0, i32 2
  store i32 0, ptr %13, align 8, !tbaa !40
  %14 = load ptr, ptr %3, align 8, !tbaa !4
  %15 = call i32 @ff_thread_sync_ref(ptr noundef %14, i64 noundef 56)
  %16 = icmp eq i32 %15, 1
  br i1 %16, label %17, label %27

17:                                               ; preds = %1
  %18 = call ptr @av_refstruct_pool_alloc_ext(i64 noundef 96, i32 noundef 131072, ptr noundef null, ptr noundef @progress_pool_init_cb, ptr noundef @progress_pool_reset_cb, ptr noundef @progress_pool_free_entry_cb, ptr noundef null)
  %19 = load ptr, ptr %4, align 8, !tbaa !29
  %20 = getelementptr inbounds nuw %struct.WavpackContext, ptr %19, i32 0, i32 9
  store ptr %18, ptr %20, align 8, !tbaa !41
  %21 = load ptr, ptr %4, align 8, !tbaa !29
  %22 = getelementptr inbounds nuw %struct.WavpackContext, ptr %21, i32 0, i32 9
  %23 = load ptr, ptr %22, align 8, !tbaa !41
  %24 = icmp ne ptr %23, null
  br i1 %24, label %26, label %25

25:                                               ; preds = %17
  store i32 -12, ptr %2, align 4
  store i32 1, ptr %5, align 4
  br label %28

26:                                               ; preds = %17
  br label %27

27:                                               ; preds = %26, %1
  store i32 0, ptr %2, align 4
  store i32 1, ptr %5, align 4
  br label %28

28:                                               ; preds = %27, %25
  call void @llvm.lifetime.end.p0(i64 8, ptr %4) #11
  %29 = load i32, ptr %2, align 4
  ret i32 %29
}