; Function Attrs: cold nounwind optsize uwtable
define internal range(i32 -12, 1) i32 @wavpack_decode_init(ptr noundef %0) #1 {
  %2 = getelementptr inbounds nuw i8, ptr %0, i64 32
  %3 = load ptr, ptr %2, align 8, !tbaa !4
  store ptr %0, ptr %3, align 8, !tbaa !36
  %4 = getelementptr inbounds nuw i8, ptr %3, i64 16
  store i32 0, ptr %4, align 8, !tbaa !37
  %5 = tail call i32 @ff_thread_sync_ref(ptr noundef %0, i64 noundef 56) #12
  %6 = icmp eq i32 %5, 1
  br i1 %6, label %7, label %10

7:                                                ; preds = %1
  %8 = tail call ptr @av_refstruct_pool_alloc_ext_c(i64 noundef 96, i32 noundef 131072, ptr null, ptr noundef nonnull @progress_pool_init_cb, ptr noundef nonnull @progress_pool_reset_cb, ptr noundef nonnull @progress_pool_free_entry_cb, ptr noundef null) #12
  %9 = getelementptr inbounds nuw i8, ptr %3, i64 56
  store ptr %8, ptr %9, align 8, !tbaa !38
  %.not = icmp eq ptr %8, null
  br i1 %.not, label %11, label %10

10:                                               ; preds = %7, %1
  br label %11

11:                                               ; preds = %7, %10
  %.0 = phi i32 [ 0, %10 ], [ -12, %7 ]
  ret i32 %.0
}